target datalayout = "e-m:e-p270:32:32-p271:32:32-p272:64:64-i64:64-i128:128-f80:128-n8:16:32:64-S128"
target triple = "x86_64-pc-linux-gnu"

%struct.PJconsts = type { ptr, ptr, ptr, ptr, ptr, ptr, ptr, ptr, ptr, ptr, ptr, ptr, i32, ptr, ptr, ptr, ptr, ptr, ptr, ptr, ptr, double, double, double, double, double, double, double, double, double, double, double, double, double, double, double, double, double, double, double, double, double, double, i32, i32, i32, i32, i32, i32, i32, i32, i32, i32, i32, ptr, ptr, ptr, ptr, ptr, ptr, double, double, double, double, double, double, double, double, double, double, double, i32, [7 x double], i32, ptr, ptr, double, double, i32, [4 x i8], %"class.std::shared_ptr", i8, double, i8, %"class.std::__cxx11::basic_string", %"class.std::__cxx11::basic_string", %"class.std::__cxx11::basic_string", i8, %"class.std::vector", i32, %"class.std::vector.3", i32, i8, i8, i8, ptr }
%"class.std::shared_ptr" = type { %"class.std::__shared_ptr" }
%"class.std::__shared_ptr" = type { ptr, %"class.std::__shared_count" }
%"class.std::__shared_count" = type { ptr }
%"class.std::__cxx11::basic_string" = type { %"struct.std::__cxx11::basic_string<char>::_Alloc_hider", i64, %union.anon }
%"struct.std::__cxx11::basic_string<char>::_Alloc_hider" = type { ptr }
%union.anon = type { i64, [8 x i8] }
%"class.std::vector" = type { %"struct.std::_Vector_base" }
%"struct.std::_Vector_base" = type { %"struct.std::_Vector_base<osgeo::proj::operation::GridDescription, std::allocator<osgeo::proj::operation::GridDescription>>::_Vector_impl" }
%"struct.std::_Vector_base<osgeo::proj::operation::GridDescription, std::allocator<osgeo::proj::operation::GridDescription>>::_Vector_impl" = type { %"struct.std::_Vector_base<osgeo::proj::operation::GridDescription, std::allocator<osgeo::proj::operation::GridDescription>>::_Vector_impl_data" }
%"struct.std::_Vector_base<osgeo::proj::operation::GridDescription, std::allocator<osgeo::proj::operation::GridDescription>>::_Vector_impl_data" = type { ptr, ptr, ptr }
%"class.std::vector.3" = type { %"struct.std::_Vector_base.4" }
%"struct.std::_Vector_base.4" = type { %"struct.std::_Vector_base<PJCoordOperation, std::allocator<PJCoordOperation>>::_Vector_impl" }
%"struct.std::_Vector_base<PJCoordOperation, std::allocator<PJCoordOperation>>::_Vector_impl" = type { %"struct.std::_Vector_base<PJCoordOperation, std::allocator<PJCoordOperation>>::_Vector_impl_data" }
%"struct.std::_Vector_base<PJCoordOperation, std::allocator<PJCoordOperation>>::_Vector_impl_data" = type { ptr, ptr, ptr }
%union.PROJVALUE = type { double }
%"struct.(anonymous namespace)::pj_urmfps" = type { double, double }

@.str.1 = private unnamed_addr constant [3 x i8] c"tn\00", align 1
@.str.2 = private unnamed_addr constant [21 x i8] c"Missing parameter n.\00", align 1
@.str.3 = private unnamed_addr constant [3 x i8] c"dn\00", align 1
@.str.4 = private unnamed_addr constant [50 x i8] c"Invalid value for n: it should be in ]0,1] range.\00", align 1

; Function Attrs: mustprogress nounwind uwtable
define internal noundef ptr @_ZL12urmfps_setupP8PJconsts(ptr noundef %0) #4 {
  %2 = alloca ptr, align 8
  store ptr %0, ptr %2, align 8, !tbaa !3
  %3 = load ptr, ptr %2, align 8, !tbaa !3
  %4 = getelementptr inbounds nuw %struct.PJconsts, ptr %3, i32 0, i32 11
  %5 = load ptr, ptr %4, align 8, !tbaa !43
  %6 = getelementptr inbounds nuw %"struct.(anonymous namespace)::pj_urmfps", ptr %5, i32 0, i32 0
  %7 = load double, ptr %6, align 8, !tbaa !47
  %8 = fdiv double 0x3FF23C6E3224F2F9, %7
  %9 = load ptr, ptr %2, align 8, !tbaa !3
  %10 = getelementptr inbounds nuw %struct.PJconsts, ptr %9, i32 0, i32 11
  %11 = load ptr, ptr %10, align 8, !tbaa !43
  %12 = getelementptr inbounds nuw %"struct.(anonymous namespace)::pj_urmfps", ptr %11, i32 0, i32 1
  store double %8, ptr %12, align 8, !tbaa !49
  %13 = load ptr, ptr %2, align 8, !tbaa !3
  %14 = getelementptr inbounds nuw %struct.PJconsts, ptr %13, i32 0, i32 27
  store double 0.000000e+00, ptr %14, align 8, !tbaa !50
  %15 = load ptr, ptr %2, align 8, !tbaa !3
  %16 = getelementptr inbounds nuw %struct.PJconsts, ptr %15, i32 0, i32 14
  store ptr @_ZL16urmfps_s_inverse5PJ_XYP8PJconsts, ptr %16, align 8, !tbaa !51
  %17 = load ptr, ptr %2, align 8, !tbaa !3
  %18 = getelementptr inbounds nuw %struct.PJconsts, ptr %17, i32 0, i32 13
  store ptr @_ZL16urmfps_s_forward5PJ_LPP8PJconsts, ptr %18, align 8, !tbaa !52
  %19 = load ptr, ptr %2, align 8, !tbaa !3
  ret ptr %19
}

; Function Attrs: mustprogress uwtable
define hidden noundef ptr @_Z35pj_projection_specific_setup_urmfpsP8PJconsts(ptr noundef %0) #0 {
  %2 = alloca ptr, align 8
  %3 = alloca ptr, align 8
  %4 = alloca ptr, align 8
  %5 = alloca i32, align 4
  %6 = alloca %union.PROJVALUE, align 8
  %7 = alloca %union.PROJVALUE, align 8
  store ptr %0, ptr %3, align 8, !tbaa !3
  call void @llvm.lifetime.start.p0(i64 8, ptr %4) #7
  %8 = call noalias ptr @calloc(i64 noundef 1, i64 noundef 16) #8
  store ptr %8, ptr %4, align 8, !tbaa !41
  %9 = load ptr, ptr %4, align 8, !tbaa !41
  %10 = icmp eq ptr null, %9
  br i1 %10, label %11, label %14

11:                                               ; preds = %1
  %12 = load ptr, ptr %3, align 8, !tbaa !3
  %13 = call noundef ptr @_Z21pj_default_destructorP8PJconstsi(ptr noundef %12, i32 noundef 4096)
  store ptr %13, ptr %2, align 8
  store i32 1, ptr %5, align 4
  br label %61

14:                                               ; preds = %1
  %15 = load ptr, ptr %4, align 8, !tbaa !41
  %16 = load ptr, ptr %3, align 8, !tbaa !3
  %17 = getelementptr inbounds nuw %struct.PJconsts, ptr %16, i32 0, i32 11
  store ptr %15, ptr %17, align 8, !tbaa !43
  call void @llvm.lifetime.start.p0(i64 8, ptr %6) #7
  %18 = load ptr, ptr %3, align 8, !tbaa !3
  %19 = getelementptr inbounds nuw %struct.PJconsts, ptr %18, i32 0, i32 0
  %20 = load ptr, ptr %19, align 8, !tbaa !44
  %21 = load ptr, ptr %3, align 8, !tbaa !3
  %22 = getelementptr inbounds nuw %struct.PJconsts, ptr %21, i32 0, i32 3
  %23 = load ptr, ptr %22, align 8, !tbaa !45
  %24 = call i64 @_Z8pj_paramP6pj_ctxP8ARG_listPKc(ptr noundef %20, ptr noundef %23, ptr noundef @.str.1)
  %25 = getelementptr inbounds nuw %union.PROJVALUE, ptr %6, i32 0, i32 0
  store i64 %24, ptr %25, align 8
  %26 = load i32, ptr %6, align 8, !tbaa !46
  %27 = icmp ne i32 %26, 0
  %28 = xor i1 %27, true
  call void @llvm.lifetime.end.p0(i64 8, ptr %6) #7
  br i1 %28, label %29, label %33

29:                                               ; preds = %14
  %30 = load ptr, ptr %3, align 8, !tbaa !3
  call void (ptr, ptr, ...) @_Z14proj_log_errorPK8PJconstsPKcz(ptr noundef %30, ptr noundef @.str.2)
  %31 = load ptr, ptr %3, align 8, !tbaa !3
  %32 = call noundef ptr @_Z21pj_default_destructorP8PJconstsi(ptr noundef %31, i32 noundef 1026)
  store ptr %32, ptr %2, align 8
  store i32 1, ptr %5, align 4
  br label %61

33:                                               ; preds = %14
  call void @llvm.lifetime.start.p0(i64 8, ptr %7) #7
  %34 = load ptr, ptr %3, align 8, !tbaa !3
  %35 = getelementptr inbounds nuw %struct.PJconsts, ptr %34, i32 0, i32 0
  %36 = load ptr, ptr %35, align 8, !tbaa !44
  %37 = load ptr, ptr %3, align 8, !tbaa !3
  %38 = getelementptr inbounds nuw %struct.PJconsts, ptr %37, i32 0, i32 3
  %39 = load ptr, ptr %38, align 8, !tbaa !45
  %40 = call i64 @_Z8pj_paramP6pj_ctxP8ARG_listPKc(ptr noundef %36, ptr noundef %39, ptr noundef @.str.3)
  %41 = getelementptr inbounds nuw %union.PROJVALUE, ptr %7, i32 0, i32 0
  store i64 %40, ptr %41, align 8
  %42 = load double, ptr %7, align 8, !tbaa !46
  %43 = load ptr, ptr %4, align 8, !tbaa !41
  %44 = getelementptr inbounds nuw %"struct.(anonymous namespace)::pj_urmfps", ptr %43, i32 0, i32 0
  store double %42, ptr %44, align 8, !tbaa !47
  call void @llvm.lifetime.end.p0(i64 8, ptr %7) #7
  %45 = load ptr, ptr %4, align 8, !tbaa !41
  %46 = getelementptr inbounds nuw %"struct.(anonymous namespace)::pj_urmfps", ptr %45, i32 0, i32 0
  %47 = load double, ptr %46, align 8, !tbaa !47
  %48 = fcmp ole double %47, 0.000000e+00
  br i1 %48, label %54, label %49

49:                                               ; preds = %33
  %50 = load ptr, ptr %4, align 8, !tbaa !41
  %51 = getelementptr inbounds nuw %"struct.(anonymous namespace)::pj_urmfps", ptr %50, i32 0, i32 0
  %52 = load double, ptr %51, align 8, !tbaa !47
  %53 = fcmp ogt double %52, 1.000000e+00
  br i1 %53, label %54, label %58

54:                                               ; preds = %49, %33
  %55 = load ptr, ptr %3, align 8, !tbaa !3
  call void (ptr, ptr, ...) @_Z14proj_log_errorPK8PJconstsPKcz(ptr noundef %55, ptr noundef @.str.4)
  %56 = load ptr, ptr %3, align 8, !tbaa !3
  %57 = call noundef ptr @_Z21pj_default_destructorP8PJconstsi(ptr noundef %56, i32 noundef 1027)
  store ptr %57, ptr %2, align 8
  store i32 1, ptr %5, align 4
  br label %61

58:                                               ; preds = %49
  %59 = load ptr, ptr %3, align 8, !tbaa !3
  %60 = call noundef ptr @_ZL12urmfps_setupP8PJconsts(ptr noundef %59)
  store ptr %60, ptr %2, align 8
  store i32 1, ptr %5, align 4
  br label %61

61:                                               ; preds = %58, %54, %29, %11
  call void @llvm.lifetime.end.p0(i64 8, ptr %4) #7
  %62 = load ptr, ptr %2, align 8
  ret ptr %62
}