; Function Attrs: mustprogress uwtable
define hidden noundef ptr @_Z35pj_projection_specific_setup_urmfpsP8PJconsts(ptr noundef %0) local_unnamed_addr #0 {
  %2 = tail call noalias dereferenceable_or_null(16) ptr @calloc(i64 noundef 1, i64 noundef 16) #4
  %3 = icmp eq ptr %2, null
  br i1 %3, label %4, label %6

4:                                                ; preds = %1
  %5 = tail call noundef ptr @_Z21pj_default_destructorP8PJconstsi(ptr noundef %0, i32 noundef 4096)
  br label %32

6:                                                ; preds = %1
  %7 = getelementptr inbounds nuw i8, ptr %0, i64 88
  store ptr %2, ptr %7, align 8, !tbaa !40
  %8 = load ptr, ptr %0, align 8, !tbaa !41
  %9 = getelementptr inbounds nuw i8, ptr %0, i64 24
  %10 = load ptr, ptr %9, align 8, !tbaa !42
  %11 = tail call i64 @_Z8pj_paramP6pj_ctxP8ARG_listPKc(ptr noundef %8, ptr noundef %10, ptr noundef nonnull @.str.1)
  %12 = and i64 %11, 4294967295
  %.not = icmp eq i64 %12, 0
  br i1 %.not, label %13, label %15

13:                                               ; preds = %6
  tail call void (ptr, ptr, ...) @_Z14proj_log_errorPK8PJconstsPKcz(ptr noundef nonnull %0, ptr noundef nonnull @.str.2)
  %14 = tail call noundef ptr @_Z21pj_default_destructorP8PJconstsi(ptr noundef nonnull %0, i32 noundef 1026)
  br label %32

15:                                               ; preds = %6
  %16 = load ptr, ptr %0, align 8, !tbaa !41
  %17 = load ptr, ptr %9, align 8, !tbaa !42
  %18 = tail call i64 @_Z8pj_paramP6pj_ctxP8ARG_listPKc(ptr noundef %16, ptr noundef %17, ptr noundef nonnull @.str.3)
  %19 = bitcast i64 %18 to double
  store i64 %18, ptr %2, align 8, !tbaa !43
  %20 = fcmp ole double %19, 0.000000e+00
  %21 = fcmp ogt double %19, 1.000000e+00
  %or.cond = or i1 %20, %21
  br i1 %or.cond, label %22, label %24

22:                                               ; preds = %15
  tail call void (ptr, ptr, ...) @_Z14proj_log_errorPK8PJconstsPKcz(ptr noundef nonnull %0, ptr noundef nonnull @.str.4)
  %23 = tail call noundef ptr @_Z21pj_default_destructorP8PJconstsi(ptr noundef nonnull %0, i32 noundef 1027)
  br label %32

24:                                               ; preds = %15
  %25 = load ptr, ptr %7, align 8, !tbaa !40
  %26 = load double, ptr %25, align 8, !tbaa !43
  %27 = fdiv double 0x3FF23C6E3224F2F9, %26
  %28 = getelementptr inbounds nuw i8, ptr %25, i64 8
  store double %27, ptr %28, align 8, !tbaa !45
  %29 = getelementptr inbounds nuw i8, ptr %0, i64 216
  store double 0.000000e+00, ptr %29, align 8, !tbaa !46
  %30 = getelementptr inbounds nuw i8, ptr %0, i64 112
  store ptr @_ZL16urmfps_s_inverse5PJ_XYP8PJconsts, ptr %30, align 8, !tbaa !47
  %31 = getelementptr inbounds nuw i8, ptr %0, i64 104
  store ptr @_ZL16urmfps_s_forward5PJ_LPP8PJconsts, ptr %31, align 8, !tbaa !48
  br label %32

32:                                               ; preds = %24, %22, %13, %4
  %.0 = phi ptr [ %5, %4 ], [ %14, %13 ], [ %23, %22 ], [ %0, %24 ]
  ret ptr %.0
}